target datalayout = "e-m:e-p270:32:32-p271:32:32-p272:64:64-i64:64-i128:128-f80:128-n8:16:32:64-S128"
target triple = "x86_64-pc-linux-gnu"

@.str.2 = private unnamed_addr constant [37 x i8] c"Haptic: Mouse isn't a haptic device.\00", align 1

; Function Attrs: nounwind uwtable
define hidden ptr @SDL_OpenHapticFromMouse_REAL() #0 {
  %1 = alloca ptr, align 8
  %2 = alloca i32, align 4
  %3 = alloca i32, align 4
  call void @llvm.lifetime.start.p0(i64 4, ptr %2) #7
  %4 = call i32 @SDL_SYS_HapticMouse()
  store i32 %4, ptr %2, align 4
  %5 = load i32, ptr %2, align 4
  %6 = icmp slt i32 %5, 0
  br i1 %6, label %7, label %9

7:                                                ; preds = %0
  %8 = call zeroext i1 (ptr, ...) @SDL_SetError_REAL(ptr noundef @.str.2)
  store ptr null, ptr %1, align 8
  store i32 1, ptr %3, align 4
  br label %12

9:                                                ; preds = %0
  %10 = load i32, ptr %2, align 4
  %11 = call ptr @SDL_OpenHaptic_REAL(i32 noundef %10)
  store ptr %11, ptr %1, align 8
  store i32 1, ptr %3, align 4
  br label %12

12:                                               ; preds = %9, %7
  call void @llvm.lifetime.end.p0(i64 4, ptr %2) #7
  %13 = load ptr, ptr %1, align 8
  ret ptr %13
}