; Function Attrs: nounwind uwtable
define hidden noundef ptr @SDL_OpenHapticFromMouse_REAL() local_unnamed_addr #0 {
  %1 = tail call i32 @SDL_SYS_HapticMouse() #9
  %2 = icmp slt i32 %1, 0
  br i1 %2, label %3, label %5

3:                                                ; preds = %0
  %4 = tail call zeroext i1 (ptr, ...) @SDL_SetError_REAL(ptr noundef nonnull @.str.2) #9
  br label %7

5:                                                ; preds = %0
  %6 = tail call ptr @SDL_OpenHaptic_REAL(i32 noundef %1)
  br label %7

7:                                                ; preds = %5, %3
  %.0 = phi ptr [ null, %3 ], [ %6, %5 ]
  ret ptr %.0
}